target datalayout = "e-m:e-p270:32:32-p271:32:32-p272:64:64-i64:64-i128:128-f80:128-n8:16:32:64-S128"
target triple = "x86_64-pc-linux-gnu"

@.str = private unnamed_addr constant [4 x i8] c"...\00", align 1
@.str.1 = private unnamed_addr constant [3 x i8] c"\0A\0D\00", align 1
@.str.2 = private unnamed_addr constant [10 x i8] c"[string \22\00", align 1
@.str.3 = private unnamed_addr constant [3 x i8] c"\22]\00", align 1

; Function Attrs: mustprogress nounwind uwtable
define hidden noundef ptr @_Z12luaO_chunkidPcmPKcm(ptr noundef %0, i64 noundef %1, ptr noundef %2, i64 noundef %3) #0 {
  %5 = alloca ptr, align 8
  %6 = alloca ptr, align 8
  %7 = alloca i64, align 8
  %8 = alloca ptr, align 8
  %9 = alloca i64, align 8
  %10 = alloca i64, align 8
  store ptr %0, ptr %6, align 8, !tbaa !22
  store i64 %1, ptr %7, align 8, !tbaa !44
  store ptr %2, ptr %8, align 8, !tbaa !22
  store i64 %3, ptr %9, align 8, !tbaa !44
  %11 = load ptr, ptr %8, align 8, !tbaa !22
  %12 = load i8, ptr %11, align 1, !tbaa !10
  %13 = sext i8 %12 to i32
  %14 = icmp eq i32 %13, 61
  br i1 %14, label %15, label %32

15:                                               ; preds = %4
  %16 = load i64, ptr %9, align 8, !tbaa !44
  %17 = load i64, ptr %7, align 8, !tbaa !44
  %18 = icmp ule i64 %16, %17
  br i1 %18, label %19, label %22

19:                                               ; preds = %15
  %20 = load ptr, ptr %8, align 8, !tbaa !22
  %21 = getelementptr inbounds i8, ptr %20, i64 1
  store ptr %21, ptr %5, align 8
  br label %97

22:                                               ; preds = %15
  %23 = load ptr, ptr %6, align 8, !tbaa !22
  %24 = load ptr, ptr %8, align 8, !tbaa !22
  %25 = getelementptr inbounds i8, ptr %24, i64 1
  %26 = load i64, ptr %7, align 8, !tbaa !44
  %27 = sub i64 %26, 1
  call void @llvm.memcpy.p0.p0.i64(ptr align 1 %23, ptr align 1 %25, i64 %27, i1 false)
  %28 = load ptr, ptr %6, align 8, !tbaa !22
  %29 = load i64, ptr %7, align 8, !tbaa !44
  %30 = sub i64 %29, 1
  %31 = getelementptr inbounds nuw i8, ptr %28, i64 %30
  store i8 0, ptr %31, align 1, !tbaa !10
  br label %95

32:                                               ; preds = %4
  %33 = load ptr, ptr %8, align 8, !tbaa !22
  %34 = load i8, ptr %33, align 1, !tbaa !10
  %35 = sext i8 %34 to i32
  %36 = icmp eq i32 %35, 64
  br i1 %36, label %37, label %61

37:                                               ; preds = %32
  %38 = load i64, ptr %9, align 8, !tbaa !44
  %39 = load i64, ptr %7, align 8, !tbaa !44
  %40 = icmp ule i64 %38, %39
  br i1 %40, label %41, label %44

41:                                               ; preds = %37
  %42 = load ptr, ptr %8, align 8, !tbaa !22
  %43 = getelementptr inbounds i8, ptr %42, i64 1
  store ptr %43, ptr %5, align 8
  br label %97

44:                                               ; preds = %37
  %45 = load ptr, ptr %6, align 8, !tbaa !22
  call void @llvm.memcpy.p0.p0.i64(ptr align 1 %45, ptr align 1 @.str, i64 3, i1 false)
  %46 = load ptr, ptr %6, align 8, !tbaa !22
  %47 = getelementptr inbounds i8, ptr %46, i64 3
  %48 = load ptr, ptr %8, align 8, !tbaa !22
  %49 = load i64, ptr %9, align 8, !tbaa !44
  %50 = getelementptr inbounds nuw i8, ptr %48, i64 %49
  %51 = load i64, ptr %7, align 8, !tbaa !44
  %52 = sub i64 %51, 4
  %53 = sub i64 0, %52
  %54 = getelementptr inbounds i8, ptr %50, i64 %53
  %55 = load i64, ptr %7, align 8, !tbaa !44
  %56 = sub i64 %55, 4
  call void @llvm.memcpy.p0.p0.i64(ptr align 1 %47, ptr align 1 %54, i64 %56, i1 false)
  %57 = load ptr, ptr %6, align 8, !tbaa !22
  %58 = load i64, ptr %7, align 8, !tbaa !44
  %59 = sub i64 %58, 1
  %60 = getelementptr inbounds nuw i8, ptr %57, i64 %59
  store i8 0, ptr %60, align 1, !tbaa !10
  br label %94

61:                                               ; preds = %32
  call void @llvm.lifetime.start.p0(i64 8, ptr %10) #9
  %62 = load ptr, ptr %8, align 8, !tbaa !22
  %63 = call i64 @strcspn(ptr noundef %62, ptr noundef @.str.1) #10
  store i64 %63, ptr %10, align 8, !tbaa !44
  %64 = load i64, ptr %7, align 8, !tbaa !44
  %65 = sub i64 %64, 15
  store i64 %65, ptr %7, align 8, !tbaa !44
  %66 = load i64, ptr %10, align 8, !tbaa !44
  %67 = load i64, ptr %7, align 8, !tbaa !44
  %68 = icmp ugt i64 %66, %67
  br i1 %68, label %69, label %71

69:                                               ; preds = %61
  %70 = load i64, ptr %7, align 8, !tbaa !44
  store i64 %70, ptr %10, align 8, !tbaa !44
  br label %71

71:                                               ; preds = %69, %61
  %72 = load ptr, ptr %6, align 8, !tbaa !22
  %73 = call ptr @strcpy(ptr noundef %72, ptr noundef @.str.2) #9
  %74 = load ptr, ptr %8, align 8, !tbaa !22
  %75 = load i64, ptr %10, align 8, !tbaa !44
  %76 = getelementptr inbounds nuw i8, ptr %74, i64 %75
  %77 = load i8, ptr %76, align 1, !tbaa !10
  %78 = sext i8 %77 to i32
  %79 = icmp ne i32 %78, 0
  br i1 %79, label %80, label %87

80:                                               ; preds = %71
  %81 = load ptr, ptr %6, align 8, !tbaa !22
  %82 = load ptr, ptr %8, align 8, !tbaa !22
  %83 = load i64, ptr %10, align 8, !tbaa !44
  %84 = call ptr @strncat(ptr noundef %81, ptr noundef %82, i64 noundef %83) #9
  %85 = load ptr, ptr %6, align 8, !tbaa !22
  %86 = call ptr @strcat(ptr noundef %85, ptr noundef @.str) #9
  br label %91

87:                                               ; preds = %71
  %88 = load ptr, ptr %6, align 8, !tbaa !22
  %89 = load ptr, ptr %8, align 8, !tbaa !22
  %90 = call ptr @strcat(ptr noundef %88, ptr noundef %89) #9
  br label %91

91:                                               ; preds = %87, %80
  %92 = load ptr, ptr %6, align 8, !tbaa !22
  %93 = call ptr @strcat(ptr noundef %92, ptr noundef @.str.3) #9
  call void @llvm.lifetime.end.p0(i64 8, ptr %10) #9
  br label %94

94:                                               ; preds = %91, %44
  br label %95

95:                                               ; preds = %94, %22
  %96 = load ptr, ptr %6, align 8, !tbaa !22
  store ptr %96, ptr %5, align 8
  br label %97

97:                                               ; preds = %95, %41, %19
  %98 = load ptr, ptr %5, align 8
  ret ptr %98
}