; Function Attrs: mustprogress nofree nounwind willreturn memory(argmem: readwrite) uwtable
define hidden noundef ptr @_Z12luaO_chunkidPcmPKcm(ptr noundef %0, i64 noundef %1, ptr noundef readonly %2, i64 noundef %3) local_unnamed_addr #11 {
  %5 = load i8, ptr %2, align 1, !tbaa !6
  switch i8 %5, label %22 [
    i8 61, label %6
    i8 64, label %11
  ]

6:                                                ; preds = %4
  %.not46 = icmp ugt i64 %3, %1
  %7 = getelementptr inbounds nuw i8, ptr %2, i64 1
  br i1 %.not46, label %8, label %32

8:                                                ; preds = %6
  %9 = add i64 %1, -1
  tail call void @llvm.memcpy.p0.p0.i64(ptr align 1 %0, ptr nonnull align 1 %7, i64 %9, i1 false)
  %10 = getelementptr inbounds nuw i8, ptr %0, i64 %9
  store i8 0, ptr %10, align 1, !tbaa !6
  br label %32

11:                                               ; preds = %4
  %.not45 = icmp ugt i64 %3, %1
  br i1 %.not45, label %14, label %12

12:                                               ; preds = %11
  %13 = getelementptr inbounds nuw i8, ptr %2, i64 1
  br label %32

14:                                               ; preds = %11
  tail call void @llvm.memcpy.p0.p0.i64(ptr noundef nonnull align 1 dereferenceable(3) %0, ptr noundef nonnull align 1 dereferenceable(3) @.str, i64 3, i1 false)
  %15 = getelementptr inbounds nuw i8, ptr %0, i64 3
  %16 = getelementptr inbounds nuw i8, ptr %2, i64 %3
  %17 = add i64 %1, -4
  %18 = sub i64 4, %1
  %19 = getelementptr inbounds i8, ptr %16, i64 %18
  tail call void @llvm.memcpy.p0.p0.i64(ptr nonnull align 1 %15, ptr nonnull align 1 %19, i64 %17, i1 false)
  %20 = getelementptr i8, ptr %0, i64 %1
  %21 = getelementptr i8, ptr %20, i64 -1
  store i8 0, ptr %21, align 1, !tbaa !6
  br label %32

22:                                               ; preds = %4
  %23 = tail call i64 @strcspn(ptr noundef nonnull %2, ptr noundef nonnull @.str.1) #16
  %24 = add i64 %1, -15
  %spec.select = tail call i64 @llvm.umin.i64(i64 %23, i64 %24)
  tail call void @llvm.memcpy.p0.p0.i64(ptr noundef nonnull align 1 dereferenceable(10) %0, ptr noundef nonnull align 1 dereferenceable(10) @.str.2, i64 10, i1 false) #15
  %25 = getelementptr inbounds nuw i8, ptr %2, i64 %spec.select
  %26 = load i8, ptr %25, align 1, !tbaa !6
  %.not = icmp eq i8 %26, 0
  br i1 %.not, label %29, label %27

27:                                               ; preds = %22
  %28 = tail call ptr @strncat(ptr noundef nonnull dereferenceable(1) %0, ptr noundef nonnull %2, i64 noundef %spec.select) #15
  %strlen = tail call i64 @strlen(ptr nonnull dereferenceable(1) %0)
  %endptr = getelementptr inbounds i8, ptr %0, i64 %strlen
  store i32 3026478, ptr %endptr, align 1
  br label %31

29:                                               ; preds = %22
  %30 = tail call ptr @strcat(ptr noundef nonnull dereferenceable(1) %0, ptr noundef nonnull dereferenceable(1) %2) #15
  br label %31

31:                                               ; preds = %29, %27
  %strlen43 = tail call i64 @strlen(ptr nonnull dereferenceable(1) %0)
  %endptr44 = getelementptr inbounds i8, ptr %0, i64 %strlen43
  tail call void @llvm.memcpy.p0.p0.i64(ptr noundef nonnull align 1 dereferenceable(3) %endptr44, ptr noundef nonnull align 1 dereferenceable(3) @.str.3, i64 3, i1 false)
  br label %32

32:                                               ; preds = %6, %8, %31, %14, %12
  %.037 = phi ptr [ %13, %12 ], [ %0, %14 ], [ %0, %31 ], [ %0, %8 ], [ %7, %6 ]
  ret ptr %.037
}